target datalayout = "e-m:e-p270:32:32-p271:32:32-p272:64:64-i64:64-i128:128-f80:128-n8:16:32:64-S128"
target triple = "x86_64-pc-linux-gnu"

%struct.ehooks_s = type { i32, %struct.atomic_p_t }
%struct.atomic_p_t = type { ptr }
%struct.edata_s = type { i64, ptr, %union.anon, ptr, i64, %union.anon.0, %union.anon.2 }
%union.anon = type { i64 }
%union.anon.0 = type { %union.anon.1 }
%union.anon.1 = type { %struct.edata_heap_link_t }
%struct.edata_heap_link_t = type { %struct.phn_link_s }
%struct.phn_link_s = type { ptr, ptr, ptr }
%union.anon.2 = type { %struct.slab_data_s }
%struct.slab_data_s = type { [8 x i64] }
%struct.base_s = type { %struct.ehooks_s, %struct.ehooks_s, %struct.malloc_mutex_s, i8, i32, i64, ptr, [232 x %struct.edata_heap_t], %struct.edata_avail_t, i64, i64, i64, i64, i64, i64 }
%struct.malloc_mutex_s = type { %union.anon.4 }
%union.anon.4 = type { %struct.anon.5 }
%struct.anon.5 = type { %struct.mutex_prof_data_t, %struct.atomic_b_t, %union.pthread_mutex_t }
%struct.mutex_prof_data_t = type { %struct.nstime_t, %struct.nstime_t, i64, i64, i32, %struct.atomic_u32_t, i64, ptr, i64 }
%struct.nstime_t = type { i64 }
%struct.atomic_u32_t = type { i32 }
%struct.atomic_b_t = type { i8 }
%union.pthread_mutex_t = type { %struct.__pthread_mutex_s }
%struct.__pthread_mutex_s = type { i32, i32, i32, i32, i32, i16, i16, %struct.__pthread_internal_list }
%struct.__pthread_internal_list = type { ptr, ptr }
%struct.edata_heap_t = type { %struct.ph_s }
%struct.ph_s = type { ptr, i64 }
%struct.edata_avail_t = type { %struct.ph_s }

; Function Attrs: inlinehint nounwind uwtable
define internal void @edata_esn_set(ptr noundef %0, i64 noundef %1) #3 {
  %3 = alloca ptr, align 8
  %4 = alloca i64, align 8
  store ptr %0, ptr %3, align 8, !tbaa !50
  store i64 %1, ptr %4, align 8, !tbaa !16
  %5 = load ptr, ptr %3, align 8, !tbaa !50
  %6 = getelementptr inbounds nuw %struct.edata_s, ptr %5, i32 0, i32 2
  %7 = load i64, ptr %6, align 8, !tbaa !55
  %8 = and i64 %7, -4096
  %9 = load i64, ptr %4, align 8, !tbaa !16
  %10 = and i64 %9, 4095
  %11 = or i64 %8, %10
  %12 = load ptr, ptr %3, align 8, !tbaa !50
  %13 = getelementptr inbounds nuw %struct.edata_s, ptr %12, i32 0, i32 2
  store i64 %11, ptr %13, align 8, !tbaa !55
  ret void
}

; Function Attrs: nounwind uwtable
define ptr @duckdb_je_base_alloc_edata(ptr noundef %0, ptr noundef %1) #0 {
  %3 = alloca ptr, align 8
  %4 = alloca ptr, align 8
  %5 = alloca ptr, align 8
  %6 = alloca i64, align 8
  %7 = alloca i64, align 8
  %8 = alloca ptr, align 8
  %9 = alloca i32, align 4
  store ptr %0, ptr %4, align 8, !tbaa !8
  store ptr %1, ptr %5, align 8, !tbaa !3
  call void @llvm.lifetime.start.p0(i64 8, ptr %6) #10
  call void @llvm.lifetime.start.p0(i64 8, ptr %7) #10
  call void @llvm.lifetime.start.p0(i64 8, ptr %8) #10
  %10 = load ptr, ptr %4, align 8, !tbaa !8
  %11 = load ptr, ptr %5, align 8, !tbaa !3
  %12 = call ptr @base_alloc_impl(ptr noundef %10, ptr noundef %11, i64 noundef 128, i64 noundef 128, ptr noundef %6, ptr noundef %7)
  store ptr %12, ptr %8, align 8, !tbaa !50
  %13 = load ptr, ptr %8, align 8, !tbaa !50
  %14 = icmp eq ptr %13, null
  br i1 %14, label %15, label %16

15:                                               ; preds = %2
  store ptr null, ptr %3, align 8
  store i32 1, ptr %9, align 4
  br label %25

16:                                               ; preds = %2
  %17 = load i64, ptr %7, align 8, !tbaa !16
  %18 = load ptr, ptr %5, align 8, !tbaa !3
  %19 = getelementptr inbounds nuw %struct.base_s, ptr %18, i32 0, i32 10
  %20 = load i64, ptr %19, align 8, !tbaa !36
  %21 = add i64 %20, %17
  store i64 %21, ptr %19, align 8, !tbaa !36
  %22 = load ptr, ptr %8, align 8, !tbaa !50
  %23 = load i64, ptr %6, align 8, !tbaa !16
  call void @edata_esn_set(ptr noundef %22, i64 noundef %23)
  %24 = load ptr, ptr %8, align 8, !tbaa !50
  store ptr %24, ptr %3, align 8
  store i32 1, ptr %9, align 4
  br label %25

25:                                               ; preds = %16, %15
  call void @llvm.lifetime.end.p0(i64 8, ptr %8) #10
  call void @llvm.lifetime.end.p0(i64 8, ptr %7) #10
  call void @llvm.lifetime.end.p0(i64 8, ptr %6) #10
  %26 = load ptr, ptr %3, align 8
  ret ptr %26
}